(dp0
S'METTS MARK'
p1
(dp2
S'to_messages'
p3
I807
sS'deferral_payments'
p4
S'NaN'
p5
sS'bonus'
p6
I600000
sS'Topoi2frm'
p7
F0.034482758620689655
sS'total_stock_value'
p8
I585062
sS'expenses'
p9
I94299
sS'from_poi_to_this_person'
p10
I38
sS'from_this_person_to_poi'
p11
I1
sS'poi'
p12
I00
sS'stock2sal'
p13
F1.5994565157960348
sS'deferred_income'
p14
g5
sS'restricted_stock'
p15
I585062
sS'long_term_incentive'
p16
g5
sS'salary'
p17
I365788
sS'bon2sal'
p18
F1.6402943781644013
sS'total_payments'
p19
I1061827
sS'loan_advances'
p20
g5
sS'poi_mail_ratio'
p21
F0.04665071770334928
sS'email_address'
p22
S'mark.metts@enron.com'
p23
sS'restricted_stock_deferred'
p24
g5
sS'is_enron_emp'
p25
I1
sS'shared_receipt_with_poi'
p26
I702
sS'exercised_stock_options'
p27
g5
sS'from_messages'
p28
I29
sS'other'
p29
I1740
sS'director_fees'
p30
g5
sS'frmpoi2To'
p31
F0.04708798017348203
ssS'BAXTER JOHN C'
p32
(dp33
g3
g5
sg4
I1295738
sg6
I1200000
sg7
S'NaN'
p34
sg8
I10623258
sg9
I11200
sg10
g5
sg11
g5
sg12
I00
sg13
F39.77228923781926
sg14
I-1386055
sg15
I3942714
sg16
I1586055
sg17
I267102
sg18
F4.492665723206865
sg19
I5634343
sg20
g5
sg21
F0.04665071770334928
sg22
g5
sg24
g5
sg25
I0
sg26
g5
sg27
I6680544
sg28
g5
sg29
I2660303
sg30
g5
sg31
g34
ssS'ELLIOTT STEVEN'
p35
(dp36
g3
g5
sg4
g5
sg6
I350000
sg7
g34
sg8
I6678735
sg9
I78552
sg10
g5
sg11
g5
sg12
I00
sg13
F39.07041025851024
sg14
I-400729
sg15
I1788391
sg16
g5
sg17
I170941
sg18
F2.047490069673162
sg19
I211725
sg20
g5
sg21
F0.04665071770334928
sg22
S'steven.elliott@enron.com'
p37
sg24
g5
sg25
I1
sg26
g5
sg27
I4890344
sg28
g5
sg29
I12961
sg30
g5
sg31
g34
ssS'CORDES WILLIAM R'
p38
(dp39
g3
I764
sg4
g5
sg6
g5
sg7
F0.0
sg8
I1038185
sg9
g5
sg10
I10
sg11
I0
sg12
I00
sg13
S'NaN'
p40
sg14
g5
sg15
I386335
sg16
g5
sg17
g5
sg18
g40
sg19
g5
sg20
g5
sg21
F0.01288659793814433
sg22
S'bill.cordes@enron.com'
p41
sg24
g5
sg25
I1
sg26
I58
sg27
I651850
sg28
I12
sg29
g5
sg30
g5
sg31
F0.013089005235602094
ssS'HANNON KEVIN P'
p42
(dp43
g3
I1045
sg4
g5
sg6
I1500000
sg7
F0.65625
sg8
I6391065
sg9
I34039
sg10
I32
sg11
I21
sg12
I01
sg13
F26.269004862449805
sg14
I-3117011
sg15
I853064
sg16
I1617011
sg17
I243293
sg18
F6.165405498719651
sg19
I288682
sg20
g5
sg21
F0.04921077065923862
sg22
S'kevin.hannon@enron.com'
p44
sg24
g5
sg25
I1
sg26
I1035
sg27
I5538001
sg28
I32
sg29
I11350
sg30
g5
sg31
F0.03062200956937799
ssS'MORDAUNT KRISTINA M'
p45
(dp46
g3
g5
sg4
g5
sg6
I325000
sg7
g34
sg8
I208510
sg9
I35018
sg10
g5
sg11
g5
sg12
I00
sg13
F0.7806644127700838
sg14
g5
sg15
I208510
sg16
g5
sg17
I267093
sg18
F1.2168046335920448
sg19
I628522
sg20
g5
sg21
F0.04921077065923862
sg22
S'kristina.mordaunt@enron.com'
p47
sg24
g5
sg25
I1
sg26
g5
sg27
g5
sg28
g5
sg29
I1411
sg30
g5
sg31
g34
ssS'MEYER ROCKFORD G'
p48
(dp49
g3
I232
sg4
I1848227
sg6
g5
sg7
F0.0
sg8
I955873
sg9
g5
sg10
I0
sg11
I0
sg12
I00
sg13
g40
sg14
g5
sg15
I462384
sg16
g5
sg17
g5
sg18
g40
sg19
I1848227
sg20
g5
sg21
F0.0
sg22
S'rockford.meyer@enron.com'
p50
sg24
g5
sg25
I1
sg26
I22
sg27
I493489
sg28
I28
sg29
g5
sg30
g5
sg31
F0.0
ssS'MCMAHON JEFFREY'
p51
(dp52
g3
I2355
sg4
g5
sg6
I2600000
sg7
F0.5416666666666666
sg8
I1662855
sg9
I137108
sg10
I58
sg11
I26
sg12
I00
sg13
F4.488767654299659
sg14
g5
sg15
I558801
sg16
I694862
sg17
I370448
sg18
F7.018528916339135
sg19
I4099771
sg20
g5
sg21
F0.03495630461922597
sg22
S'jeffrey.mcmahon@enron.com'
p53
sg24
g5
sg25
I1
sg26
I2228
sg27
I1104054
sg28
I48
sg29
I297353
sg30
g5
sg31
F0.024628450106157114
ssS'HORTON STANLEY C'
p54
(dp55
g3
I2350
sg4
I3131860
sg6
g5
sg7
F0.013979496738117428
sg8
I7256648
sg9
g5
sg10
I44
sg11
I15
sg12
I00
sg13
g40
sg14
g5
sg15
I2046079
sg16
g5
sg17
g5
sg18
g40
sg19
I3131860
sg20
g5
sg21
F0.017236342389716622
sg22
S'stanley.horton@enron.com'
p56
sg24
g5
sg25
I1
sg26
I1074
sg27
I5210569
sg28
I1073
sg29
g5
sg30
g5
sg31
F0.01872340425531915
ssS'PIPER GREGORY F'
p57
(dp58
g3
I1238
sg4
I1130036
sg6
I400000
sg7
F0.21621621621621623
sg8
I880290
sg9
I43057
sg10
I61
sg11
I48
sg12
I00
sg13
F4.466413991506461
sg14
I-33333
sg15
I409554
sg16
g5
sg17
I197091
sg18
F2.0295193590777862
sg19
I1737629
sg20
g5
sg21
F0.07465753424657534
sg22
S'greg.piper@enron.com'
p59
sg24
I-409554
sg25
I1
sg26
I742
sg27
I880290
sg28
I222
sg29
I778
sg30
g5
sg31
F0.049273021001615507
ssS'HUMPHREY GENE E'
p60
(dp61
g3
I128
sg4
I2964506
sg6
g5
sg7
F1.0
sg8
I2282768
sg9
I4994
sg10
I10
sg11
I17
sg12
I00
sg13
F17.462501147455708
sg14
g5
sg15
g5
sg16
g5
sg17
I130724
sg18
g40
sg19
I3100224
sg20
g5
sg21
F0.18620689655172415
sg22
S'gene.humphrey@enron.com'
p62
sg24
g5
sg25
I1
sg26
I119
sg27
I2282768
sg28
I17
sg29
g5
sg30
g5
sg31
F0.078125
ssS'UMANOFF ADAM S'
p63
(dp64
g3
I111
sg4
g5
sg6
I788750
sg7
F0.0
sg8
g5
sg9
I53122
sg10
I12
sg11
I0
sg12
I00
sg13
g40
sg14
g5
sg15
g5
sg16
g5
sg17
I288589
sg18
F2.7331256562100426
sg19
I1130461
sg20
g5
sg21
F0.09302325581395349
sg22
S'adam.umanoff@enron.com'
p65
sg24
g5
sg25
I1
sg26
I41
sg27
g5
sg28
I18
sg29
g5
sg30
g5
sg31
F0.10810810810810811
ssS'BLACHMAN JEREMY M'
p66
(dp67
g3
I2475
sg4
g5
sg6
I850000
sg7
F0.14285714285714285
sg8
I954354
sg9
I84208
sg10
I25
sg11
I2
sg12
I00
sg13
F3.839747974218052
sg14
g5
sg15
I189041
sg16
I831809
sg17
I248546
sg18
F3.419890080709406
sg19
I2014835
sg20
g5
sg21
F0.010847730012053034
sg22
S'jeremy.blachman@enron.com'
p68
sg24
g5
sg25
I1
sg26
I2326
sg27
I765313
sg28
I14
sg29
I272
sg30
g5
sg31
F0.010101010101010102
ssS'SUNDE MARTIN'
p69
(dp70
g3
I2647
sg4
g5
sg6
I700000
sg7
F0.34210526315789475
sg8
I698920
sg9
g5
sg10
I37
sg11
I13
sg12
I00
sg13
F2.71440000621393
sg14
g5
sg15
I698920
sg16
I476451
sg17
I257486
sg18
F2.7185944090164127
sg19
I1545059
sg20
g5
sg21
F0.0186219739292365
sg22
S'marty.sunde@enron.com'
p71
sg24
g5
sg25
I1
sg26
I2565
sg27
g5
sg28
I38
sg29
I111122
sg30
g5
sg31
F0.013978088401964487
ssS'GIBBS DANA R'
p72
(dp73
g3
I169
sg4
I504610
sg6
g5
sg7
F0.0
sg8
I2218275
sg9
g5
sg10
I0
sg11
I0
sg12
I00
sg13
g40
sg14
g5
sg15
g5
sg16
I461912
sg17
g5
sg18
g40
sg19
I966522
sg20
g5
sg21
F0.0
sg22
S'dana.gibbs@enron.com'
p74
sg24
g5
sg25
I1
sg26
I23
sg27
I2218275
sg28
I12
sg29
g5
sg30
g5
sg31
F0.0
ssS'LOWRY CHARLES P'
p75
(dp76
g3
g5
sg4
g5
sg6
g5
sg7
g34
sg8
I372205
sg9
g5
sg10
g5
sg11
g5
sg12
I00
sg13
g40
sg14
g5
sg15
I153686
sg16
g5
sg17
g5
sg18
g40
sg19
g5
sg20
g5
sg21
F0.0
sg22
g5
sg24
I-153686
sg25
I0
sg26
g5
sg27
I372205
sg28
g5
sg29
g5
sg30
g5
sg31
g34
ssS'COLWELL WESLEY'
p77
(dp78
g3
I1758
sg4
I27610
sg6
I1200000
sg7
F0.275
sg8
I698242
sg9
I16514
sg10
I240
sg11
I11
sg12
I01
sg13
F2.4198972766529656
sg14
I-144062
sg15
I698242
sg16
g5
sg17
I288542
sg18
F4.158839960906905
sg19
I1490344
sg20
g5
sg21
F0.13959955506117908
sg22
S'wes.colwell@enron.com'
p79
sg24
g5
sg25
I1
sg26
I1132
sg27
g5
sg28
I40
sg29
I101740
sg30
g5
sg31
F0.13651877133105803
ssS'MULLER MARK S'
p80
(dp81
g3
I136
sg4
I842924
sg6
I1100000
sg7
F0.0
sg8
I1416848
sg9
g5
sg10
I12
sg11
I0
sg12
I00
sg13
F5.630142974083464
sg14
I-719000
sg15
I360528
sg16
I1725545
sg17
I251654
sg18
F4.3710809285765375
sg19
I3202070
sg20
g5
sg21
F0.07894736842105263
sg22
S's..muller@enron.com'
p82
sg24
g5
sg25
I1
sg26
I114
sg27
I1056320
sg28
I16
sg29
I947
sg30
g5
sg31
F0.08823529411764706
ssS'JACKSON CHARLENE R'
p83
(dp84
g3
I258
sg4
g5
sg6
I250000
sg7
F0.3392857142857143
sg8
I725735
sg9
I10181
sg10
I25
sg11
I19
sg12
I00
sg13
F2.515040303855724
sg14
g5
sg15
I540672
sg16
g5
sg17
I288558
sg18
F0.8663769502145149
sg19
I551174
sg20
g5
sg21
F0.14012738853503184
sg22
S'charlene.jackson@enron.com'
p85
sg24
g5
sg25
I1
sg26
I117
sg27
I185063
sg28
I56
sg29
I2435
sg30
g5
sg31
F0.09689922480620156
ssS'WESTFAHL RICHARD K'
p86
(dp87
g3
g5
sg4
g5
sg6
g5
sg7
g34
sg8
I384930
sg9
I51870
sg10
g5
sg11
g5
sg12
I00
sg13
F6.038685993975903
sg14
I-10800
sg15
I384930
sg16
I256191
sg17
I63744
sg18
g40
sg19
I762135
sg20
g5
sg21
F0.14012738853503184
sg22
S'dick.westfahl@enron.com'
p88
sg24
g5
sg25
I1
sg26
g5
sg27
g5
sg28
g5
sg29
I401130
sg30
g5
sg31
g34
ssS'WALTERS GARETH W'
p89
(dp90
g3
g5
sg4
I53625
sg6
g5
sg7
g34
sg8
I1030329
sg9
I33785
sg10
g5
sg11
g5
sg12
I00
sg13
g40
sg14
g5
sg15
g5
sg16
g5
sg17
g5
sg18
g40
sg19
I87410
sg20
g5
sg21
F0.14012738853503184
sg22
g5
sg24
g5
sg25
I0
sg26
g5
sg27
I1030329
sg28
g5
sg29
g5
sg30
g5
sg31
g34
ssS'WALLS JR ROBERT H'
p91
(dp92
g3
I671
sg4
g5
sg6
I850000
sg7
F0.0
sg8
I5898997
sg9
I50936
sg10
I17
sg11
I0
sg12
I00
sg13
F16.5195902445035
sg14
g5
sg15
I1552453
sg16
I540751
sg17
I357091
sg18
F2.380345626184922
sg19
I1798780
sg20
g5
sg21
F0.0208078335373317
sg22
S'rob.walls@enron.com'
p93
sg24
g5
sg25
I1
sg26
I215
sg27
I4346544
sg28
I146
sg29
I2
sg30
g5
sg31
F0.02533532041728763
ssS'KITCHEN LOUISE'
p94
(dp95
g3
I8305
sg4
g5
sg6
I3100000
sg7
F0.11226851851851852
sg8
I547143
sg9
I5774
sg10
I251
sg11
I194
sg12
I00
sg13
F2.0156902763758002
sg14
g5
sg15
I466101
sg16
g5
sg17
I271442
sg18
F11.420487617981005
sg19
I3471141
sg20
g5
sg21
F0.044353633011063494
sg22
S'louise.kitchen@enron.com'
p96
sg24
g5
sg25
I1
sg26
I3669
sg27
I81042
sg28
I1728
sg29
I93925
sg30
g5
sg31
F0.030222757375075255
ssS'CHAN RONNIE'
p97
(dp98
g3
g5
sg4
g5
sg6
g5
sg7
g34
sg8
g5
sg9
g5
sg10
g5
sg11
g5
sg12
I00
sg13
g40
sg14
I-98784
sg15
I32460
sg16
g5
sg17
g5
sg18
g40
sg19
g5
sg20
g5
sg21
F0.044353633011063494
sg22
g5
sg24
I-32460
sg25
I0
sg26
g5
sg27
g5
sg28
g5
sg29
g5
sg30
I98784
sg31
g34
ssS'BELFER ROBERT'
p99
(dp100
g3
g5
sg4
I-102500
sg6
g5
sg7
g34
sg8
I-44093
sg9
g5
sg10
g5
sg11
g5
sg12
I00
sg13
g40
sg14
g5
sg15
g5
sg16
g5
sg17
g5
sg18
g40
sg19
I102500
sg20
g5
sg21
F0.044353633011063494
sg22
g5
sg24
I44093
sg25
I0
sg26
g5
sg27
I3285
sg28
g5
sg29
g5
sg30
I3285
sg31
g34
ssS'SHANKMAN JEFFREY A'
p101
(dp102
g3
I3221
sg4
g5
sg6
I2000000
sg7
F0.030958597538232
sg8
I2072035
sg9
I178979
sg10
I94
sg11
I83
sg12
I00
sg13
F6.813439216073132
sg14
g5
sg15
I630137
sg16
I554422
sg17
I304110
sg18
F6.576567689322943
sg19
I3038702
sg20
g5
sg21
F0.029989833954591663
sg22
S'jeffrey.shankman@enron.com'
p103
sg24
g5
sg25
I1
sg26
I1730
sg27
I1441898
sg28
I2681
sg29
I1191
sg30
g5
sg31
F0.029183483390251473
ssS'WODRASKA JOHN'
p104
(dp105
g3
g5
sg4
g5
sg6
g5
sg7
g34
sg8
g5
sg9
g5
sg10
g5
sg11
g5
sg12
I00
sg13
g40
sg14
g5
sg15
g5
sg16
g5
sg17
g5
sg18
g40
sg19
I189583
sg20
g5
sg21
F0.029989833954591663
sg22
S'john.wodraska@enron.com'
p106
sg24
g5
sg25
I1
sg26
g5
sg27
g5
sg28
g5
sg29
I189583
sg30
g5
sg31
g34
ssS'BERGSIEKER RICHARD P'
p107
(dp108
g3
I383
sg4
g5
sg6
I250000
sg7
F0.0
sg8
I659249
sg9
I59175
sg10
I4
sg11
I0
sg12
I00
sg13
F3.5080991049477976
sg14
I-485813
sg15
I659249
sg16
I180250
sg17
I187922
sg18
F1.3303391832781686
sg19
I618850
sg20
g5
sg21
F0.00904977375565611
sg22
S'rick.bergsieker@enron.com'
p109
sg24
g5
sg25
I1
sg26
I233
sg27
g5
sg28
I59
sg29
I427316
sg30
g5
sg31
F0.010443864229765013
ssS'URQUHART JOHN A'
p110
(dp111
g3
g5
sg4
g5
sg6
g5
sg7
g34
sg8
g5
sg9
I228656
sg10
g5
sg11
g5
sg12
I00
sg13
g40
sg14
I-36666
sg15
g5
sg16
g5
sg17
g5
sg18
g40
sg19
I228656
sg20
g5
sg21
F0.00904977375565611
sg22
g5
sg24
g5
sg25
I0
sg26
g5
sg27
g5
sg28
g5
sg29
g5
sg30
I36666
sg31
g34
ssS'BIBI PHILIPPE A'
p112
(dp113
g3
I1607
sg4
g5
sg6
I1000000
sg7
F0.2
sg8
I1843816
sg9
I38559
sg10
I23
sg11
I8
sg12
I00
sg13
F8.63108718548859
sg14
g5
sg15
I378082
sg16
I369721
sg17
I213625
sg18
F4.681100058513751
sg19
I2047593
sg20
g5
sg21
F0.018822100789313904
sg22
S'philippe.bibi@enron.com'
p114
sg24
g5
sg25
I1
sg26
I1336
sg27
I1465734
sg28
I40
sg29
I425688
sg30
g5
sg31
F0.01431238332296204
ssS'RIEKER PAULA H'
p115
(dp116
g3
I1328
sg4
I214678
sg6
I700000
sg7
F0.5853658536585366
sg8
I1918887
sg9
I33271
sg10
I35
sg11
I48
sg12
I01
sg13
F7.700157704022055
sg14
I-100000
sg15
I283649
sg16
g5
sg17
I249201
sg18
F2.8089774920646384
sg19
I1099100
sg20
g5
sg21
F0.058865248226950356
sg22
S'paula.rieker@enron.com'
p117
sg24
g5
sg25
I1
sg26
I1258
sg27
I1635238
sg28
I82
sg29
I1950
sg30
g5
sg31
F0.02635542168674699
ssS'WHALEY DAVID A'
p118
(dp119
g3
g5
sg4
g5
sg6
g5
sg7
g34
sg8
I98718
sg9
g5
sg10
g5
sg11
g5
sg12
I00
sg13
g40
sg14
g5
sg15
g5
sg16
g5
sg17
g5
sg18
g40
sg19
g5
sg20
g5
sg21
F0.058865248226950356
sg22
g5
sg24
g5
sg25
I0
sg26
g5
sg27
I98718
sg28
g5
sg29
g5
sg30
g5
sg31
g34
ssS'BECK SALLY W'
p120
(dp121
g3
I7315
sg4
g5
sg6
I700000
sg7
F0.08887865530739121
sg8
I126027
sg9
I37172
sg10
I144
sg11
I386
sg12
I00
sg13
F0.544793152639087
sg14
g5
sg15
I126027
sg16
g5
sg17
I231330
sg18
F3.025980201443825
sg19
I969068
sg20
g5
sg21
F0.0454623434551381
sg22
S'sally.beck@enron.com'
p122
sg24
g5
sg25
I1
sg26
I2639
sg27
g5
sg28
I4343
sg29
I566
sg30
g5
sg31
F0.01968557758031442
ssS'HAUG DAVID L'
p123
(dp124
g3
I573
sg4
g5
sg6
g5
sg7
F0.3684210526315789
sg8
I2217299
sg9
I475
sg10
I4
sg11
I7
sg12
I00
sg13
g40
sg14
g5
sg15
I2217299
sg16
g5
sg17
g5
sg18
g40
sg19
I475
sg20
g5
sg21
F0.018581081081081082
sg22
S'david.haug@enron.com'
p125
sg24
g5
sg25
I1
sg26
I471
sg27
g5
sg28
I19
sg29
g5
sg30
g5
sg31
F0.006980802792321117
ssS'ECHOLS JOHN B'
p126
(dp127
g3
g5
sg4
g5
sg6
I200000
sg7
g34
sg8
I1008941
sg9
I21530
sg10
g5
sg11
g5
sg12
I00
sg13
F5.536179319048534
sg14
g5
sg15
I407503
sg16
I2234774
sg17
I182245
sg18
F1.0974237976350518
sg19
I2692324
sg20
g5
sg21
F0.018581081081081082
sg22
S'john.echols@enron.com'
p128
sg24
g5
sg25
I1
sg26
g5
sg27
I601438
sg28
g5
sg29
I53775
sg30
g5
sg31
g34
ssS'MENDELSOHN JOHN'
p129
(dp130
g3
g5
sg4
g5
sg6
g5
sg7
g34
sg8
g5
sg9
I148
sg10
g5
sg11
g5
sg12
I00
sg13
g40
sg14
I-103750
sg15
g5
sg16
g5
sg17
g5
sg18
g40
sg19
I148
sg20
g5
sg21
F0.018581081081081082
sg22
g5
sg24
g5
sg25
I0
sg26
g5
sg27
g5
sg28
g5
sg29
g5
sg30
I103750
sg31
g34
ssS'HICKERSON GARY J'
p131
(dp132
g3
I1320
sg4
g5
sg6
I1700000
sg7
F0.037037037037037035
sg8
I441096
sg9
I98849
sg10
I40
sg11
I1
sg12
I00
sg13
F2.08272423366763
sg14
g5
sg15
I441096
sg16
I69223
sg17
I211788
sg18
F8.02689481934765
sg19
I2081796
sg20
g5
sg21
F0.030438010393466965
sg22
S'gary.hickerson@enron.com'
p133
sg24
g5
sg25
I1
sg26
I900
sg27
g5
sg28
I27
sg29
I1936
sg30
g5
sg31
F0.030303030303030304
ssS'CLINE KENNETH W'
p134
(dp135
g3
g5
sg4
g5
sg6
g5
sg7
g34
sg8
I189518
sg9
g5
sg10
g5
sg11
g5
sg12
I00
sg13
g40
sg14
g5
sg15
I662086
sg16
g5
sg17
g5
sg18
g40
sg19
g5
sg20
g5
sg21
F0.030438010393466965
sg22
g5
sg24
I-472568
sg25
I0
sg26
g5
sg27
g5
sg28
g5
sg29
g5
sg30
g5
sg31
g34
ssS'LEWIS RICHARD'
p136
(dp137
g3
I952
sg4
g5
sg6
g5
sg7
F0.0
sg8
I850477
sg9
g5
sg10
I10
sg11
I0
sg12
I00
sg13
g40
sg14
g5
sg15
g5
sg16
g5
sg17
g5
sg18
g40
sg19
g5
sg20
g5
sg21
F0.010224948875255624
sg22
S'richard.lewis@enron.com'
p138
sg24
g5
sg25
I1
sg26
I739
sg27
I850477
sg28
I26
sg29
g5
sg30
g5
sg31
F0.01050420168067227
ssS'HAYES ROBERT E'
p139
(dp140
g3
I504
sg4
I7961
sg6
g5
sg7
F0.0
sg8
I151418
sg9
g5
sg10
I16
sg11
I0
sg12
I00
sg13
g40
sg14
g5
sg15
I151418
sg16
g5
sg17
g5
sg18
g40
sg19
I7961
sg20
g5
sg21
F0.031007751937984496
sg22
S'robert.hayes@enron.com'
p141
sg24
g5
sg25
I1
sg26
I50
sg27
g5
sg28
I12
sg29
g5
sg30
g5
sg31
F0.031746031746031744
ssS'MCCARTY DANNY J'
p142
(dp143
g3
I1433
sg4
g5
sg6
g5
sg7
F0.009302325581395349
sg8
I758931
sg9
g5
sg10
I25
sg11
I2
sg12
I00
sg13
g40
sg14
g5
sg15
I94556
sg16
g5
sg17
g5
sg18
g40
sg19
g5
sg20
g5
sg21
F0.016383495145631068
sg22
S'danny.mccarty@enron.com'
p144
sg24
g5
sg25
I1
sg26
I508
sg27
I664375
sg28
I215
sg29
g5
sg30
g5
sg31
F0.017445917655268667
ssS'KOPPER MICHAEL J'
p145
(dp146
g3
g5
sg4
g5
sg6
I800000
sg7
g34
sg8
I985032
sg9
I118134
sg10
g5
sg11
g5
sg12
I01
sg13
F4.391484808631105
sg14
g5
sg15
I985032
sg16
I602671
sg17
I224305
sg18
F3.5665723011078665
sg19
I2652612
sg20
g5
sg21
F0.016383495145631068
sg22
S'michael.kopper@enron.com'
p147
sg24
g5
sg25
I1
sg26
g5
sg27
g5
sg28
g5
sg29
I907502
sg30
g5
sg31
g34
ssS'LEFF DANIEL P'
p148
(dp149
g3
I2822
sg4
g5
sg6
I1000000
sg7
F0.2222222222222222
sg8
I360528
sg9
g5
sg10
I67
sg11
I14
sg12
I00
sg13
F1.3170165043507485
sg14
g5
sg15
I360528
sg16
I1387399
sg17
I273746
sg18
F3.653021414011529
sg19
I2664228
sg20
g5
sg21
F0.028076256499133447
sg22
S'dan.leff@enron.com'
p150
sg24
g5
sg25
I1
sg26
I2672
sg27
g5
sg28
I63
sg29
I3083
sg30
g5
sg31
F0.02374202693125443
ssS'LAVORATO JOHN J'
p151
(dp152
g3
I7259
sg4
g5
sg6
I8000000
sg7
F0.15899419729206962
sg8
I5167144
sg9
I49537
sg10
I528
sg11
I411
sg12
I00
sg13
F15.229374454740515
sg14
g5
sg15
I1008149
sg16
I2035380
sg17
I339288
sg18
F23.57878852184575
sg19
I10425757
sg20
g5
sg21
F0.09538805363673304
sg22
S'john.lavorato@enron.com'
p153
sg24
g5
sg25
I1
sg26
I3962
sg27
I4158995
sg28
I2585
sg29
I1552
sg30
g5
sg31
F0.07273729163796666
ssS'BERBERIAN DAVID'
p154
(dp155
g3
g5
sg4
g5
sg6
g5
sg7
g34
sg8
I2493616
sg9
I11892
sg10
g5
sg11
g5
sg12
I00
sg13
F11.513496043069138
sg14
g5
sg15
I869220
sg16
g5
sg17
I216582
sg18
g40
sg19
I228474
sg20
g5
sg21
F0.09538805363673304
sg22
S'david.berberian@enron.com'
p156
sg24
g5
sg25
I1
sg26
g5
sg27
I1624396
sg28
g5
sg29
g5
sg30
g5
sg31
g34
ssS'DETMERING TIMOTHY J'
p157
(dp158
g3
g5
sg4
I875307
sg6
I425000
sg7
g34
sg8
I2027865
sg9
I52255
sg10
g5
sg11
g5
sg12
I00
sg13
F9.63356294536817
sg14
I-775241
sg15
I315068
sg16
I415657
sg17
I210500
sg18
F2.019002375296912
sg19
I1204583
sg20
g5
sg21
F0.09538805363673304
sg22
S'timothy.detmering@enron.com'
p159
sg24
I-315068
sg25
I1
sg26
g5
sg27
I2027865
sg28
g5
sg29
I1105
sg30
g5
sg31
g34
ssS'WAKEHAM JOHN'
p160
(dp161
g3
g5
sg4
g5
sg6
g5
sg7
g34
sg8
g5
sg9
I103773
sg10
g5
sg11
g5
sg12
I00
sg13
g40
sg14
g5
sg15
g5
sg16
g5
sg17
g5
sg18
g40
sg19
I213071
sg20
g5
sg21
F0.09538805363673304
sg22
g5
sg24
g5
sg25
I0
sg26
g5
sg27
g5
sg28
g5
sg29
g5
sg30
I109298
sg31
g34
ssS'POWERS WILLIAM'
p162
(dp163
g3
I653
sg4
g5
sg6
g5
sg7
F0.0
sg8
g5
sg9
g5
sg10
I0
sg11
I0
sg12
I00
sg13
g40
sg14
I-17500
sg15
g5
sg16
g5
sg17
g5
sg18
g40
sg19
g5
sg20
g5
sg21
F0.0
sg22
S'ken.powers@enron.com'
p164
sg24
g5
sg25
I1
sg26
I12
sg27
g5
sg28
I26
sg29
g5
sg30
I17500
sg31
F0.0
ssS'GOLD JOSEPH'
p165
(dp166
g3
g5
sg4
g5
sg6
I750000
sg7
g34
sg8
I877611
sg9
g5
sg10
g5
sg11
g5
sg12
I00
sg13
F3.2161059806508354
sg14
g5
sg15
I441096
sg16
I304805
sg17
I272880
sg18
F2.748460861917326
sg19
I2146973
sg20
g5
sg21
F0.0
sg22
S'joe.gold@enron.com'
p167
sg24
g5
sg25
I1
sg26
g5
sg27
I436515
sg28
g5
sg29
I819288
sg30
g5
sg31
g34
ssS'BANNANTINE JAMES M'
p168
(dp169
g3
I566
sg4
g5
sg6
g5
sg7
F0.0
sg8
I5243487
sg9
I56301
sg10
I39
sg11
I0
sg12
I00
sg13
F10992.635220125787
sg14
I-5104
sg15
I1757552
sg16
g5
sg17
I477
sg18
g40
sg19
I916197
sg20
g5
sg21
F0.06554621848739496
sg22
S'james.bannantine@enron.com'
p170
sg24
I-560222
sg25
I1
sg26
I465
sg27
I4046157
sg28
I29
sg29
I864523
sg30
g5
sg31
F0.06890459363957598
ssS'DUNCAN JOHN H'
p171
(dp172
g3
g5
sg4
g5
sg6
g5
sg7
g34
sg8
I371750
sg9
g5
sg10
g5
sg11
g5
sg12
I00
sg13
g40
sg14
I-25000
sg15
g5
sg16
g5
sg17
g5
sg18
g40
sg19
I77492
sg20
g5
sg21
F0.06554621848739496
sg22
g5
sg24
g5
sg25
I0
sg26
g5
sg27
I371750
sg28
g5
sg29
g5
sg30
I102492
sg31
g34
ssS'SHAPIRO RICHARD S'
p173
(dp174
g3
I15149
sg4
g5
sg6
I650000
sg7
F0.053497942386831275
sg8
I987001
sg9
I137767
sg10
I74
sg11
I65
sg12
I00
sg13
F3.668112354873716
sg14
g5
sg15
I379164
sg16
g5
sg17
I269076
sg18
F2.4156743819590005
sg19
I1057548
sg20
g5
sg21
F0.00849425568320704
sg22
S'richard.shapiro@enron.com'
p175
sg24
g5
sg25
I1
sg26
I4527
sg27
I607837
sg28
I1215
sg29
I705
sg30
g5
sg31
F0.0048848108786058485
ssS'SHERRIFF JOHN R'
p176
(dp177
g3
I3187
sg4
g5
sg6
I1500000
sg7
F0.25
sg8
I3128982
sg9
g5
sg10
I28
sg11
I23
sg12
I00
sg13
F7.297406595456878
sg14
g5
sg15
I1293424
sg16
I554422
sg17
I428780
sg18
F3.4982974952189934
sg19
I4335388
sg20
g5
sg21
F0.01555352241537054
sg22
S'john.sherriff@enron.com'
p178
sg24
g5
sg25
I1
sg26
I2103
sg27
I1835558
sg28
I92
sg29
I1852186
sg30
g5
sg31
F0.008785691873235017
ssS'SHELBY REX'
p179
(dp180
g3
I225
sg4
g5
sg6
I200000
sg7
F0.358974358974359
sg8
I2493616
sg9
I22884
sg10
I13
sg11
I14
sg12
I01
sg13
F11.771001302845491
sg14
I-4167
sg15
I869220
sg16
g5
sg17
I211844
sg18
F0.9440909348388437
sg19
I2003885
sg20
g5
sg21
F0.10227272727272728
sg22
S'rex.shelby@enron.com'
p181
sg24
g5
sg25
I1
sg26
I91
sg27
I1624396
sg28
I39
sg29
I1573324
sg30
g5
sg31
F0.057777777777777775
ssS'LEMAISTRE CHARLES'
p182
(dp183
g3
g5
sg4
g5
sg6
g5
sg7
g34
sg8
I412878
sg9
g5
sg10
g5
sg11
g5
sg12
I00
sg13
g40
sg14
I-25000
sg15
g5
sg16
g5
sg17
g5
sg18
g40
sg19
I87492
sg20
g5
sg21
F0.10227272727272728
sg22
g5
sg24
g5
sg25
I0
sg26
g5
sg27
I412878
sg28
g5
sg29
g5
sg30
I112492
sg31
g34
ssS'DEFFNER JOSEPH M'
p184
(dp185
g3
I714
sg4
g5
sg6
I600000
sg7
F0.05405405405405406
sg8
I159211
sg9
I41626
sg10
I115
sg11
I4
sg12
I00
sg13
F0.7724152318298475
sg14
g5
sg15
I141833
sg16
I335349
sg17
I206121
sg18
F2.910911551952494
sg19
I1208649
sg20
g5
sg21
F0.15101522842639595
sg22
S'joseph.deffner@enron.com'
p186
sg24
g5
sg25
I1
sg26
I552
sg27
I17378
sg28
I74
sg29
I25553
sg30
g5
sg31
F0.16106442577030813
ssS'KISHKILL JOSEPH G'
p187
(dp188
g3
g5
sg4
g5
sg6
g5
sg7
g34
sg8
I1034346
sg9
I116335
sg10
g5
sg11
g5
sg12
I00
sg13
F5.936124789091285
sg14
I-51042
sg15
I1034346
sg16
g5
sg17
I174246
sg18
g40
sg19
I704896
sg20
g5
sg21
F0.15101522842639595
sg22
S'joe.kishkill@enron.com'
p189
sg24
g5
sg25
I1
sg26
g5
sg27
g5
sg28
g5
sg29
I465357
sg30
g5
sg31
g34
ssS'WHALLEY LAWRENCE G'
p190
(dp191
g3
I6019
sg4
g5
sg6
I3000000
sg7
F0.04316546762589928
sg8
I6079137
sg9
I57838
sg10
I186
sg11
I24
sg12
I00
sg13
F11.911375018614166
sg14
g5
sg15
I2796177
sg16
I808346
sg17
I510364
sg18
F5.878157550297435
sg19
I4677574
sg20
g5
sg21
F0.03193916349809886
sg22
S'greg.whalley@enron.com'
p192
sg24
g5
sg25
I1
sg26
I3920
sg27
I3282960
sg28
I556
sg29
I301026
sg30
g5
sg31
F0.03090214321315833
ssS'MCCONNELL MICHAEL S'
p193
(dp194
g3
I3329
sg4
g5
sg6
I1100000
sg7
F0.07075127644055434
sg8
I3101279
sg9
I81364
sg10
I92
sg11
I194
sg12
I00
sg13
F8.495770303365678
sg14
g5
sg15
I1478269
sg16
I554422
sg17
I365038
sg18
F3.013384907872605
sg19
I2101364
sg20
g5
sg21
F0.047109207708779445
sg22
S'mike.mcconnell@enron.com'
p195
sg24
g5
sg25
I1
sg26
I2189
sg27
I1623010
sg28
I2742
sg29
I540
sg30
g5
sg31
F0.02763592670471613
ssS'PIRO JIM'
p196
(dp197
g3
I58
sg4
g5
sg6
g5
sg7
F0.0625
sg8
I47304
sg9
g5
sg10
I0
sg11
I1
sg12
I00
sg13
g40
sg14
g5
sg15
I47304
sg16
g5
sg17
g5
sg18
g40
sg19
g5
sg20
g5
sg21
F0.013513513513513514
sg22
S'jim.piro@enron.com'
p198
sg24
g5
sg25
I1
sg26
I3
sg27
g5
sg28
I16
sg29
g5
sg30
g5
sg31
F0.0
ssS'DELAINEY DAVID W'
p199
(dp200
g3
I3093
sg4
g5
sg6
I3000000
sg7
F0.198435972629521
sg8
I3614261
sg9
I86174
sg10
I66
sg11
I609
sg12
I01
sg13
F9.897664878424155
sg14
g5
sg15
I1323148
sg16
I1294981
sg17
I365163
sg18
F8.215509238340138
sg19
I4747979
sg20
g5
sg21
F0.10954235637779941
sg22
S'david.delainey@enron.com'
p201
sg24
g5
sg25
I1
sg26
I2097
sg27
I2291113
sg28
I3069
sg29
I1661
sg30
g5
sg31
F0.02133850630455868
ssS'SULLIVAN-SHAKLOVITZ COLLEEN'
p202
(dp203
g3
g5
sg4
I181993
sg6
I100000
sg7
g34
sg8
I1362375
sg9
g5
sg10
g5
sg11
g5
sg12
I00
sg13
F8.369476406661793
sg14
g5
sg15
g5
sg16
I554422
sg17
I162779
sg18
F0.6143298582741017
sg19
I999356
sg20
g5
sg21
F0.10954235637779941
sg22
g5
sg24
g5
sg25
I0
sg26
g5
sg27
I1362375
sg28
g5
sg29
I162
sg30
g5
sg31
g34
ssS'WROBEL BRUCE'
p204
(dp205
g3
g5
sg4
g5
sg6
g5
sg7
g34
sg8
I139130
sg9
g5
sg10
g5
sg11
g5
sg12
I00
sg13
g40
sg14
g5
sg15
g5
sg16
g5
sg17
g5
sg18
g40
sg19
g5
sg20
g5
sg21
F0.10954235637779941
sg22
g5
sg24
g5
sg25
I0
sg26
g5
sg27
I139130
sg28
g5
sg29
g5
sg30
g5
sg31
g34
ssS'LINDHOLM TOD A'
p206
(dp207
g3
g5
sg4
I204075
sg6
I200000
sg7
g34
sg8
I3064208
sg9
I57727
sg10
g5
sg11
g5
sg12
I00
sg13
F12.958838181995034
sg14
g5
sg15
I514847
sg16
I175000
sg17
I236457
sg18
F0.8458197473536415
sg19
I875889
sg20
g5
sg21
F0.10954235637779941
sg22
S'tod.lindholm@enron.com'
p208
sg24
g5
sg25
I1
sg26
g5
sg27
I2549361
sg28
g5
sg29
I2630
sg30
g5
sg31
g34
ssS'MEYER JEROME J'
p209
(dp210
g3
g5
sg4
g5
sg6
g5
sg7
g34
sg8
g5
sg9
I2151
sg10
g5
sg11
g5
sg12
I00
sg13
g40
sg14
I-38346
sg15
g5
sg16
g5
sg17
g5
sg18
g40
sg19
I2151
sg20
g5
sg21
F0.10954235637779941
sg22
g5
sg24
g5
sg25
I0
sg26
g5
sg27
g5
sg28
g5
sg29
g5
sg30
I38346
sg31
g34
ssS'BUTTS ROBERT H'
p211
(dp212
g3
g5
sg4
g5
sg6
I750000
sg7
g34
sg8
I417619
sg9
I9410
sg10
g5
sg11
g5
sg12
I00
sg13
F1.596915676287493
sg14
I-75000
sg15
I417619
sg16
I175000
sg17
I261516
sg18
F2.8678933602532926
sg19
I1271582
sg20
g5
sg21
F0.10954235637779941
sg22
S'bob.butts@enron.com'
p213
sg24
g5
sg25
I1
sg26
g5
sg27
g5
sg28
g5
sg29
I150656
sg30
g5
sg31
g34
ssS'OLSON CINDY K'
p214
(dp215
g3
I1184
sg4
I77716
sg6
I750000
sg7
F0.28846153846153844
sg8
I2606763
sg9
I63791
sg10
I20
sg11
I15
sg12
I00
sg13
F7.921413768164387
sg14
g5
sg15
I969729
sg16
I100000
sg17
I329078
sg18
F2.279094925823057
sg19
I1321557
sg20
g5
sg21
F0.02831715210355987
sg22
S'cindy.olson@enron.com'
p216
sg24
g5
sg25
I1
sg26
I856
sg27
I1637034
sg28
I52
sg29
I972
sg30
g5
sg31
F0.016891891891891893
ssS'MCDONALD REBECCA'
p217
(dp218
g3
I894
sg4
g5
sg6
g5
sg7
F0.07692307692307693
sg8
I1691366
sg9
g5
sg10
I54
sg11
I1
sg12
I00
sg13
g40
sg14
g5
sg15
I934065
sg16
g5
sg17
g5
sg18
g40
sg19
g5
sg20
g5
sg21
F0.06063947078280044
sg22
S'rebecca.mcdonald@enron.com'
p219
sg24
g5
sg25
I1
sg26
I720
sg27
I757301
sg28
I13
sg29
g5
sg30
g5
sg31
F0.06040268456375839
ssS'CUMBERLAND MICHAEL S'
p220
(dp221
g3
g5
sg4
g5
sg6
I325000
sg7
g34
sg8
I207940
sg9
I22344
sg10
g5
sg11
g5
sg12
I00
sg13
F1.1246139784422846
sg14
g5
sg15
I207940
sg16
I275000
sg17
I184899
sg18
F1.7577163748857485
sg19
I807956
sg20
g5
sg21
F0.06063947078280044
sg22
g5
sg24
g5
sg25
I0
sg26
g5
sg27
g5
sg28
g5
sg29
I713
sg30
g5
sg31
g34
ssS'GAHN ROBERT S'
p222
(dp223
g3
g5
sg4
I73122
sg6
I509870
sg7
g34
sg8
I318607
sg9
I50080
sg10
g5
sg11
g5
sg12
I00
sg13
F1.6593423190700387
sg14
I-1042
sg15
I235370
sg16
g5
sg17
I192008
sg18
F2.6554622724053165
sg19
I900585
sg20
g5
sg21
F0.06063947078280044
sg22
g5
sg24
g5
sg25
I0
sg26
g5
sg27
I83237
sg28
g5
sg29
I76547
sg30
g5
sg31
g34
ssS'MCCLELLAN GEORGE'
p224
(dp225
g3
I1744
sg4
g5
sg6
I900000
sg7
F0.0
sg8
I947861
sg9
I228763
sg10
I52
sg11
I0
sg12
I00
sg13
F3.5983835270089175
sg14
I-125000
sg15
I441096
sg16
g5
sg17
I263413
sg18
F3.4166878627858153
sg19
I1318763
sg20
g5
sg21
F0.029001673173452314
sg22
S'george.mcclellan@enron.com'
p226
sg24
g5
sg25
I1
sg26
I1469
sg27
I506765
sg28
I49
sg29
I51587
sg30
g5
sg31
F0.02981651376146789
ssS'HERMANN ROBERT J'
p227
(dp228
g3
g5
sg4
g5
sg6
I700000
sg7
g34
sg8
I668132
sg9
I48357
sg10
g5
sg11
g5
sg12
I00
sg13
F2.543685254489593
sg14
I-280000
sg15
I480632
sg16
I150000
sg17
I262663
sg18
F2.665011821231007
sg19
I1297461
sg20
g5
sg21
F0.029001673173452314
sg22
S'robert.hermann@enron.com'
p229
sg24
g5
sg25
I1
sg26
g5
sg27
I187500
sg28
g5
sg29
I416441
sg30
g5
sg31
g34
ssS'SCRIMSHAW MATTHEW'
p230
(dp231
g3
g5
sg4
g5
sg6
g5
sg7
g34
sg8
I759557
sg9
g5
sg10
g5
sg11
g5
sg12
I00
sg13
g40
sg14
g5
sg15
g5
sg16
g5
sg17
g5
sg18
g40
sg19
g5
sg20
g5
sg21
F0.029001673173452314
sg22
S'matthew.scrimshaw@enron.com'
p232
sg24
g5
sg25
I1
sg26
g5
sg27
I759557
sg28
g5
sg29
g5
sg30
g5
sg31
g34
ssS'GATHMANN WILLIAM D'
p233
(dp234
g3
g5
sg4
g5
sg6
g5
sg7
g34
sg8
I1945360
sg9
g5
sg10
g5
sg11
g5
sg12
I00
sg13
g40
sg14
g5
sg15
I264013
sg16
g5
sg17
g5
sg18
g40
sg19
g5
sg20
g5
sg21
F0.029001673173452314
sg22
g5
sg24
I-72419
sg25
I0
sg26
g5
sg27
I1753766
sg28
g5
sg29
g5
sg30
g5
sg31
g34
ssS'HAEDICKE MARK E'
p235
(dp236
g3
I4009
sg4
I2157527
sg6
I1150000
sg7
F0.03142709943328181
sg8
I803094
sg9
I76169
sg10
I180
sg11
I61
sg12
I00
sg13
F2.146592716338122
sg14
I-934484
sg15
I524169
sg16
I983346
sg17
I374125
sg18
F3.073838957567658
sg19
I3859065
sg20
g5
sg21
F0.04050420168067227
sg22
S'mark.haedicke@enron.com'
p237
sg24
I-329825
sg25
I1
sg26
I1847
sg27
I608750
sg28
I1941
sg29
I52382
sg30
g5
sg31
F0.04489897730107259
ssS'BOWEN JR RAYMOND M'
p238
(dp239
g3
I1858
sg4
g5
sg6
I1350000
sg7
F0.5555555555555556
sg8
I252055
sg9
I65907
sg10
I140
sg11
I15
sg12
I01
sg13
F0.9047167813468007
sg14
I-833
sg15
I252055
sg16
I974293
sg17
I278601
sg18
F4.845639462887786
sg19
I2669589
sg20
g5
sg21
F0.08222811671087533
sg22
S'raymond.bowen@enron.com'
p240
sg24
g5
sg25
I1
sg26
I1593
sg27
g5
sg28
I27
sg29
I1621
sg30
g5
sg31
F0.07534983853606028
ssS'GILLIS JOHN'
p241
(dp242
g3
g5
sg4
g5
sg6
g5
sg7
g34
sg8
I85641
sg9
g5
sg10
g5
sg11
g5
sg12
I00
sg13
g40
sg14
g5
sg15
I75838
sg16
g5
sg17
g5
sg18
g40
sg19
g5
sg20
g5
sg21
F0.08222811671087533
sg22
g5
sg24
g5
sg25
I0
sg26
g5
sg27
I9803
sg28
g5
sg29
g5
sg30
g5
sg31
g34
ssS'FITZGERALD JAY L'
p243
(dp244
g3
I936
sg4
g5
sg6
I350000
sg7
F0.5
sg8
I1621236
sg9
I23870
sg10
I1
sg11
I8
sg12
I00
sg13
F8.140492174515582
sg14
g5
sg15
I956775
sg16
I556416
sg17
I199157
sg18
F1.7574074724965731
sg19
I1414857
sg20
g5
sg21
F0.009453781512605041
sg22
S'jay.fitzgerald@enron.com'
p245
sg24
g5
sg25
I1
sg26
I723
sg27
I664461
sg28
I16
sg29
I285414
sg30
g5
sg31
F0.0010683760683760685
ssS'MORAN MICHAEL P'
p246
(dp247
g3
I672
sg4
g5
sg6
g5
sg7
F0.0
sg8
I221141
sg9
g5
sg10
I0
sg11
I0
sg12
I00
sg13
g40
sg14
g5
sg15
I161602
sg16
g5
sg17
g5
sg18
g40
sg19
g5
sg20
g5
sg21
F0.0
sg22
S'michael.moran@enron.com'
p248
sg24
g5
sg25
I1
sg26
I127
sg27
I59539
sg28
I19
sg29
g5
sg30
g5
sg31
F0.0
ssS'REDMOND BRIAN L'
p249
(dp250
g3
I1671
sg4
g5
sg6
g5
sg7
F0.22171945701357465
sg8
I7890324
sg9
I14689
sg10
I204
sg11
I49
sg12
I00
sg13
F81.47794299876084
sg14
g5
sg15
I381285
sg16
g5
sg17
I96840
sg18
g40
sg19
I111529
sg20
g5
sg21
F0.13372093023255813
sg22
S'brian.redmond@enron.com'
p251
sg24
g5
sg25
I1
sg26
I1063
sg27
I7509039
sg28
I221
sg29
g5
sg30
g5
sg31
F0.12208258527827648
ssS'BAZELIDES PHILIP J'
p252
(dp253
g3
g5
sg4
I684694
sg6
g5
sg7
g34
sg8
I1599641
sg9
g5
sg10
g5
sg11
g5
sg12
I00
sg13
F19.793127768566407
sg14
g5
sg15
g5
sg16
I93750
sg17
I80818
sg18
g40
sg19
I860136
sg20
g5
sg21
F0.13372093023255813
sg22
g5
sg24
g5
sg25
I0
sg26
g5
sg27
I1599641
sg28
g5
sg29
I874
sg30
g5
sg31
g34
ssS'BELDEN TIMOTHY N'
p254
(dp255
g3
I7991
sg4
I2144013
sg6
I5249999
sg7
F0.2231404958677686
sg8
I1110705
sg9
I17355
sg10
I228
sg11
I108
sg12
I01
sg13
F5.190234533806232
sg14
I-2334434
sg15
I157569
sg16
g5
sg17
I213999
sg18
F24.532820246823583
sg19
I5501630
sg20
g5
sg21
F0.03964601769911504
sg22
S'tim.belden@enron.com'
p256
sg24
g5
sg25
I1
sg26
I5521
sg27
I953136
sg28
I484
sg29
I210698
sg30
g5
sg31
F0.028532098610937303
ssS'DURAN WILLIAM D'
p257
(dp258
g3
I904
sg4
g5
sg6
I750000
sg7
F0.25
sg8
I1640910
sg9
I25785
sg10
I106
sg11
I3
sg12
I00
sg13
F7.788193191957929
sg14
g5
sg15
I189041
sg16
I1105218
sg17
I210692
sg18
F3.559698517266911
sg19
I2093263
sg20
g5
sg21
F0.11899563318777293
sg22
S'w.duran@enron.com'
p259
sg24
g5
sg25
I1
sg26
I599
sg27
I1451869
sg28
I12
sg29
I1568
sg30
g5
sg31
F0.1172566371681416
ssS'THORN TERENCE H'
p260
(dp261
g3
I266
sg4
I16586
sg6
g5
sg7
F0.0
sg8
I4817796
sg9
I46145
sg10
I0
sg11
I0
sg12
I00
sg13
F21.692696302900135
sg14
g5
sg15
I365320
sg16
I200000
sg17
I222093
sg18
g40
sg19
I911453
sg20
g5
sg21
F0.0
sg22
S'terence.thorn@enron.com'
p262
sg24
g5
sg25
I1
sg26
I73
sg27
I4452476
sg28
I41
sg29
I426629
sg30
g5
sg31
F0.0
ssS'FASTOW ANDREW S'
p263
(dp264
g3
g5
sg4
g5
sg6
I1300000
sg7
g34
sg8
I1794412
sg9
I55921
sg10
g5
sg11
g5
sg12
I01
sg13
F4.0717498150661
sg14
I-1386055
sg15
I1794412
sg16
I1736055
sg17
I440698
sg18
F2.949865894558178
sg19
I2424083
sg20
g5
sg21
F0.0
sg22
S'andrew.fastow@enron.com'
p265
sg24
g5
sg25
I1
sg26
g5
sg27
g5
sg28
g5
sg29
I277464
sg30
g5
sg31
g34
ssS'FOY JOE'
p266
(dp267
g3
I57
sg4
I181755
sg6
g5
sg7
F0.0
sg8
I343434
sg9
g5
sg10
I0
sg11
I0
sg12
I00
sg13
g40
sg14
g5
sg15
g5
sg16
g5
sg17
g5
sg18
g40
sg19
I181755
sg20
g5
sg21
F0.0
sg22
S'tracy.foy@enron.com'
p268
sg24
g5
sg25
I1
sg26
I2
sg27
I343434
sg28
I13
sg29
g5
sg30
g5
sg31
F0.0
ssS'CALGER CHRISTOPHER F'
p269
(dp270
g3
I2598
sg4
g5
sg6
I1250000
sg7
F0.1736111111111111
sg8
I126027
sg9
I35818
sg10
I199
sg11
I25
sg12
I01
sg13
F0.5246992993017998
sg14
I-262500
sg15
I126027
sg16
I375304
sg17
I240189
sg18
F5.204234998272194
sg19
I1639297
sg20
g5
sg21
F0.08169219547775347
sg22
S'christopher.calger@enron.com'
p271
sg24
g5
sg25
I1
sg26
I2188
sg27
g5
sg28
I144
sg29
I486
sg30
g5
sg31
F0.07659738260200154
ssS'RICE KENNETH D'
p272
(dp273
g3
I905
sg4
g5
sg6
I1750000
sg7
F0.2222222222222222
sg8
I22542539
sg9
I46950
sg10
I42
sg11
I4
sg12
I01
sg13
F53.591558972603394
sg14
I-3504386
sg15
I2748364
sg16
I1617011
sg17
I420636
sg18
F4.160366682832663
sg19
I505050
sg20
g5
sg21
F0.04983748645720477
sg22
S'ken.rice@enron.com'
p274
sg24
g5
sg25
I1
sg26
I864
sg27
I19794175
sg28
I18
sg29
I174839
sg30
g5
sg31
F0.04640883977900553
ssS'KAMINSKI WINCENTY J'
p275
(dp276
g3
I4607
sg4
g5
sg6
I400000
sg7
F0.011901447661469933
sg8
I976037
sg9
I83585
sg10
I41
sg11
I171
sg12
I00
sg13
F3.5479223994096714
sg14
g5
sg15
I126027
sg16
I323466
sg17
I275101
sg18
F1.4540114357999425
sg19
I1086821
sg20
g5
sg21
F0.011172595520421607
sg22
S'vince.kaminski@enron.com'
p277
sg24
g5
sg25
I1
sg26
I583
sg27
I850010
sg28
I14368
sg29
I4669
sg30
g5
sg31
F0.008899500759713479
ssS'LOCKHART EUGENE E'
p278
(dp279
g3
g5
sg4
g5
sg6
g5
sg7
g34
sg8
g5
sg9
g5
sg10
g5
sg11
g5
sg12
I00
sg13
g40
sg14
g5
sg15
g5
sg16
g5
sg17
g5
sg18
g40
sg19
g5
sg20
g5
sg21
F0.011172595520421607
sg22
g5
sg24
g5
sg25
I0
sg26
g5
sg27
g5
sg28
g5
sg29
g5
sg30
g5
sg31
g34
ssS'COX DAVID'
p280
(dp281
g3
I102
sg4
g5
sg6
I800000
sg7
F0.12121212121212122
sg8
I495633
sg9
I27861
sg10
I0
sg11
I4
sg12
I00
sg13
F1.5770026217991142
sg14
I-41250
sg15
I378082
sg16
g5
sg17
I314288
sg18
F2.5454360331924857
sg19
I1101393
sg20
g5
sg21
F0.02962962962962963
sg22
S'chip.cox@enron.com'
p282
sg24
g5
sg25
I1
sg26
I71
sg27
I117551
sg28
I33
sg29
I494
sg30
g5
sg31
F0.0
ssS'OVERDYKE JR JERE C'
p283
(dp284
g3
g5
sg4
g5
sg6
g5
sg7
g34
sg8
I7307594
sg9
I18834
sg10
g5
sg11
g5
sg12
I00
sg13
F76.96984442969844
sg14
g5
sg15
I2041016
sg16
I135836
sg17
I94941
sg18
g40
sg19
I249787
sg20
g5
sg21
F0.02962962962962963
sg22
S'jere.overdyke@enron.com'
p285
sg24
g5
sg25
I1
sg26
g5
sg27
I5266578
sg28
g5
sg29
I176
sg30
g5
sg31
g34
ssS'PEREIRA PAULO V. FERRAZ'
p286
(dp287
g3
g5
sg4
g5
sg6
g5
sg7
g34
sg8
g5
sg9
I27942
sg10
g5
sg11
g5
sg12
I00
sg13
g40
sg14
I-101250
sg15
g5
sg16
g5
sg17
g5
sg18
g40
sg19
I27942
sg20
g5
sg21
F0.02962962962962963
sg22
g5
sg24
g5
sg25
I0
sg26
g5
sg27
g5
sg28
g5
sg29
g5
sg30
I101250
sg31
g34
ssS'STABLER FRANK'
p288
(dp289
g3
g5
sg4
g5
sg6
I500000
sg7
g34
sg8
I511734
sg9
I16514
sg10
g5
sg11
g5
sg12
I00
sg13
F2.1366585665255404
sg14
g5
sg15
I511734
sg16
g5
sg17
I239502
sg18
F2.0876652387036434
sg19
I1112087
sg20
g5
sg21
F0.02962962962962963
sg22
S'frank.stabler@enron.com'
p290
sg24
g5
sg25
I1
sg26
g5
sg27
g5
sg28
g5
sg29
I356071
sg30
g5
sg31
g34
ssS'BLAKE JR. NORMAN P'
p291
(dp292
g3
g5
sg4
g5
sg6
g5
sg7
g34
sg8
g5
sg9
I1279
sg10
g5
sg11
g5
sg12
I00
sg13
g40
sg14
I-113784
sg15
g5
sg16
g5
sg17
g5
sg18
g40
sg19
I1279
sg20
g5
sg21
F0.02962962962962963
sg22
g5
sg24
g5
sg25
I0
sg26
g5
sg27
g5
sg28
g5
sg29
g5
sg30
I113784
sg31
g34
ssS'SHERRICK JEFFREY B'
p293
(dp294
g3
I613
sg4
g5
sg6
g5
sg7
F0.72
sg8
I1832468
sg9
g5
sg10
I39
sg11
I18
sg12
I00
sg13
g40
sg14
g5
sg15
I405999
sg16
g5
sg17
g5
sg18
g40
sg19
g5
sg20
g5
sg21
F0.08934169278996865
sg22
S'jeffrey.sherrick@enron.com'
p295
sg24
g5
sg25
I1
sg26
I583
sg27
I1426469
sg28
I25
sg29
g5
sg30
g5
sg31
F0.0636215334420881
ssS'PRENTICE JAMES'
p296
(dp297
g3
g5
sg4
I564348
sg6
g5
sg7
g34
sg8
I1095040
sg9
g5
sg10
g5
sg11
g5
sg12
I00
sg13
g40
sg14
g5
sg15
I208809
sg16
g5
sg17
g5
sg18
g40
sg19
I564348
sg20
g5
sg21
F0.08934169278996865
sg22
S'james.prentice@enron.com'
p298
sg24
g5
sg25
I1
sg26
g5
sg27
I886231
sg28
g5
sg29
g5
sg30
g5
sg31
g34
ssS'GRAY RODNEY'
p299
(dp300
g3
g5
sg4
I93585
sg6
g5
sg7
g34
sg8
g5
sg9
g5
sg10
g5
sg11
g5
sg12
I00
sg13
g40
sg14
g5
sg15
g5
sg16
I365625
sg17
I6615
sg18
g40
sg19
I1146658
sg20
g5
sg21
F0.08934169278996865
sg22
g5
sg24
g5
sg25
I0
sg26
g5
sg27
g5
sg28
g5
sg29
I680833
sg30
g5
sg31
g34
ssS'PICKERING MARK R'
p301
(dp302
g3
I898
sg4
g5
sg6
I300000
sg7
F0.0
sg8
I28798
sg9
I31653
sg10
I7
sg11
I0
sg12
I00
sg13
F0.04396392875516956
sg14
g5
sg15
g5
sg16
g5
sg17
I655037
sg18
F0.45798939601885086
sg19
I1386690
sg20
I400000
sg21
F0.007253886010362694
sg22
S'mark.pickering@enron.com'
p303
sg24
g5
sg25
I1
sg26
I728
sg27
I28798
sg28
I67
sg29
g5
sg30
g5
sg31
F0.0077951002227171495
ssS'THE TRAVEL AGENCY IN THE PARK'
p304
(dp305
g3
g5
sg4
g5
sg6
g5
sg7
g34
sg8
g5
sg9
g5
sg10
g5
sg11
g5
sg12
I00
sg13
g40
sg14
g5
sg15
g5
sg16
g5
sg17
g5
sg18
g40
sg19
I362096
sg20
g5
sg21
F0.007253886010362694
sg22
g5
sg24
g5
sg25
I0
sg26
g5
sg27
g5
sg28
g5
sg29
I362096
sg30
g5
sg31
g34
ssS'NOLES JAMES L'
p306
(dp307
g3
g5
sg4
I774401
sg6
g5
sg7
g34
sg8
I368705
sg9
g5
sg10
g5
sg11
g5
sg12
I00
sg13
g40
sg14
g5
sg15
I463261
sg16
g5
sg17
g5
sg18
g40
sg19
I774401
sg20
g5
sg21
F0.007253886010362694
sg22
g5
sg24
I-94556
sg25
I0
sg26
g5
sg27
g5
sg28
g5
sg29
g5
sg30
g5
sg31
g34
ssS'KEAN STEVEN J'
p308
(dp309
g3
I12754
sg4
g5
sg6
I1000000
sg7
F0.05725699067909454
sg8
I6153642
sg9
I41953
sg10
I140
sg11
I387
sg12
I00
sg13
F15.219054355514446
sg14
g5
sg15
I4131594
sg16
I300000
sg17
I404338
sg18
F2.473178380463869
sg19
I1747522
sg20
g5
sg21
F0.02700763593501768
sg22
S'steven.kean@enron.com'
p310
sg24
g5
sg25
I1
sg26
I3639
sg27
I2022048
sg28
I6759
sg29
I1231
sg30
g5
sg31
F0.010976948408342482
ssS'FOWLER PEGGY'
p311
(dp312
g3
I517
sg4
g5
sg6
g5
sg7
F0.0
sg8
I1884748
sg9
g5
sg10
I0
sg11
I0
sg12
I00
sg13
g40
sg14
g5
sg15
I560170
sg16
g5
sg17
g5
sg18
g40
sg19
g5
sg20
g5
sg21
F0.0
sg22
S'kulvinder.fowler@enron.com'
p313
sg24
g5
sg25
I1
sg26
I10
sg27
I1324578
sg28
I36
sg29
g5
sg30
g5
sg31
F0.0
ssS'WASAFF GEORGE'
p314
(dp315
g3
I400
sg4
I831299
sg6
I325000
sg7
F0.23333333333333334
sg8
I2056427
sg9
g5
sg10
I22
sg11
I7
sg12
I00
sg13
F7.909456299327682
sg14
I-583325
sg15
I388167
sg16
I200000
sg17
I259996
sg18
F1.2500192310650933
sg19
I1034395
sg20
g5
sg21
F0.06744186046511629
sg22
S'george.wasaff@enron.com'
p316
sg24
g5
sg25
I1
sg26
I337
sg27
I1668260
sg28
I30
sg29
I1425
sg30
g5
sg31
F0.055
ssS'WHITE JR THOMAS E'
p317
(dp318
g3
g5
sg4
g5
sg6
I450000
sg7
g34
sg8
I15144123
sg9
I81353
sg10
g5
sg11
g5
sg12
I00
sg13
F47.69156618158801
sg14
g5
sg15
I13847074
sg16
g5
sg17
I317543
sg18
F1.417130908254945
sg19
I1934359
sg20
g5
sg21
F0.06744186046511629
sg22
S'thomas.white@enron.com'
p319
sg24
g5
sg25
I1
sg26
g5
sg27
I1297049
sg28
g5
sg29
I1085463
sg30
g5
sg31
g34
ssS'CHRISTODOULOU DIOMEDES'
p320
(dp321
g3
g5
sg4
g5
sg6
g5
sg7
g34
sg8
I6077885
sg9
g5
sg10
g5
sg11
g5
sg12
I00
sg13
g40
sg14
g5
sg15
I950730
sg16
g5
sg17
g5
sg18
g40
sg19
g5
sg20
g5
sg21
F0.06744186046511629
sg22
S'diomedes.christodoulou@enron.com'
p322
sg24
g5
sg25
I1
sg26
g5
sg27
I5127155
sg28
g5
sg29
g5
sg30
g5
sg31
g34
ssS'ALLEN PHILLIP K'
p323
(dp324
g3
I2902
sg4
I2869717
sg6
I4175000
sg7
F0.029612756264236904
sg8
I1729541
sg9
I13868
sg10
I47
sg11
I65
sg12
I00
sg13
F8.563991978411032
sg14
I-3081055
sg15
I126027
sg16
I304805
sg17
I201955
sg18
F20.672922185635414
sg19
I4484442
sg20
g5
sg21
F0.0219737100255052
sg22
S'phillip.allen@enron.com'
p325
sg24
I-126027
sg25
I1
sg26
I1407
sg27
I1729541
sg28
I2195
sg29
I152
sg30
g5
sg31
F0.016195727084769126
ssS'SHARP VICTORIA T'
p326
(dp327
g3
I3136
sg4
I187469
sg6
I600000
sg7
F0.04411764705882353
sg8
I494136
sg9
I116337
sg10
I24
sg11
I6
sg12
I00
sg13
F1.9913115665777406
sg14
g5
sg15
I213063
sg16
I422158
sg17
I248146
sg18
F2.417931379107461
sg19
I1576511
sg20
g5
sg21
F0.009168704156479218
sg22
S'vicki.sharp@enron.com'
p328
sg24
g5
sg25
I1
sg26
I2477
sg27
I281073
sg28
I136
sg29
I2401
sg30
g5
sg31
F0.007653061224489796
ssS'JAEDICKE ROBERT'
p329
(dp330
g3
g5
sg4
g5
sg6
g5
sg7
g34
sg8
I431750
sg9
g5
sg10
g5
sg11
g5
sg12
I00
sg13
g40
sg14
I-25000
sg15
I44093
sg16
g5
sg17
g5
sg18
g40
sg19
I83750
sg20
g5
sg21
F0.009168704156479218
sg22
g5
sg24
I-44093
sg25
I0
sg26
g5
sg27
I431750
sg28
g5
sg29
g5
sg30
I108750
sg31
g34
ssS'WINOKUR JR. HERBERT S'
p331
(dp332
g3
g5
sg4
g5
sg6
g5
sg7
g34
sg8
g5
sg9
I1413
sg10
g5
sg11
g5
sg12
I00
sg13
g40
sg14
I-25000
sg15
g5
sg16
g5
sg17
g5
sg18
g40
sg19
I84992
sg20
g5
sg21
F0.009168704156479218
sg22
g5
sg24
g5
sg25
I0
sg26
g5
sg27
g5
sg28
g5
sg29
g5
sg30
I108579
sg31
g34
ssS'BROWN MICHAEL'
p333
(dp334
g3
I1486
sg4
g5
sg6
g5
sg7
F0.024390243902439025
sg8
g5
sg9
I49288
sg10
I13
sg11
I1
sg12
I00
sg13
g40
sg14
g5
sg15
g5
sg16
g5
sg17
g5
sg18
g40
sg19
I49288
sg20
g5
sg21
F0.0091683038637852
sg22
S'michael.brown@enron.com'
p335
sg24
g5
sg25
I1
sg26
I761
sg27
g5
sg28
I41
sg29
g5
sg30
g5
sg31
F0.008748317631224764
ssS'BADUM JAMES P'
p336
(dp337
g3
g5
sg4
I178980
sg6
g5
sg7
g34
sg8
I257817
sg9
I3486
sg10
g5
sg11
g5
sg12
I00
sg13
g40
sg14
g5
sg15
g5
sg16
g5
sg17
g5
sg18
g40
sg19
I182466
sg20
g5
sg21
F0.0091683038637852
sg22
g5
sg24
g5
sg25
I0
sg26
g5
sg27
I257817
sg28
g5
sg29
g5
sg30
g5
sg31
g34
ssS'HUGHES JAMES A'
p338
(dp339
g3
I719
sg4
g5
sg6
g5
sg7
F0.14705882352941177
sg8
I1118394
sg9
g5
sg10
I35
sg11
I5
sg12
I00
sg13
g40
sg14
g5
sg15
I363428
sg16
g5
sg17
g5
sg18
g40
sg19
g5
sg20
g5
sg21
F0.05312084993359894
sg22
S'james.hughes@enron.com'
p340
sg24
g5
sg25
I1
sg26
I589
sg27
I754966
sg28
I34
sg29
g5
sg30
g5
sg31
F0.048678720445062586
ssS'REYNOLDS LAWRENCE'
p341
(dp342
g3
g5
sg4
I51365
sg6
I100000
sg7
g34
sg8
I4221891
sg9
I8409
sg10
g5
sg11
g5
sg12
I00
sg13
F55.26107671566382
sg14
I-200000
sg15
I201483
sg16
I156250
sg17
I76399
sg18
F1.3089176559902616
sg19
I394475
sg20
g5
sg21
F0.05312084993359894
sg22
g5
sg24
I-140264
sg25
I0
sg26
g5
sg27
I4160672
sg28
g5
sg29
I202052
sg30
g5
sg31
g34
ssS'DIMICHELE RICHARD G'
p343
(dp344
g3
g5
sg4
g5
sg6
I1000000
sg7
g34
sg8
I8317782
sg9
I35812
sg10
g5
sg11
g5
sg12
I00
sg13
F31.652061737978904
sg14
g5
sg15
I126027
sg16
I694862
sg17
I262788
sg18
F3.8053487982708494
sg19
I2368151
sg20
g5
sg21
F0.05312084993359894
sg22
S'richard.dimichele@enron.com'
p345
sg24
g5
sg25
I1
sg26
g5
sg27
I8191755
sg28
g5
sg29
I374689
sg30
g5
sg31
g34
ssS'BHATNAGAR SANJAY'
p346
(dp347
g3
I523
sg4
g5
sg6
g5
sg7
F0.034482758620689655
sS'total_stock_value'
p348
S'NaN'
p349
sg9
g5
sg10
I0
sg11
I1
sg12
I00
sg13
g40
sg14
g5
sg15
I-2604490
sg16
g5
sg17
g5
sg18
g40
sg19
I15456290
sg20
g5
sg21
F0.0018115942028985507
sg22
S'sanjay.bhatnagar@enron.com'
p350
sg24
I15456290
sg25
I1
sg26
I463
sg27
I2604490
sg28
I29
sg29
I137864
sg30
I137864
sg31
F0.0
ssS'CARTER REBECCA C'
p351
(dp352
g3
I312
sg4
g5
sg6
I300000
sg7
F0.4666666666666667
sg8
g5
sg9
g5
sg10
I29
sg11
I7
sg12
I00
sg13
g40
sg14
I-159792
sg15
I307301
sg16
I75000
sg17
I261809
sg18
F1.14587351848103
sg19
I477557
sg20
g5
sg21
F0.11009174311926606
sg22
S'rebecca.carter@enron.com'
p353
sg24
I-307301
sg25
I1
sg26
I196
sg27
g5
sg28
I15
sg29
I540
sg30
g5
sg31
F0.09294871794871795
ssS'BUCHANAN HAROLD G'
p354
(dp355
g3
I1088
sg4
g5
sg6
I500000
sg7
F0.0
sg8
I1014505
sg9
I600
sg10
I0
sg11
I0
sg12
I00
sg13
F4.090465572924437
sg14
g5
sg15
I189041
sg16
I304805
sg17
I248017
sg18
F2.015990839337626
sg19
I1054637
sg20
g5
sg21
F0.0
sg22
S'john.buchanan@enron.com'
p356
sg24
g5
sg25
I1
sg26
I23
sg27
I825464
sg28
I125
sg29
I1215
sg30
g5
sg31
F0.0
ssS'YEAP SOON'
p357
(dp358
g3
g5
sg4
g5
sg6
g5
sg7
g34
sg8
I192758
sg9
I55097
sg10
g5
sg11
g5
sg12
I00
sg13
g40
sg14
g5
sg15
g5
sg16
g5
sg17
g5
sg18
g40
sg19
I55097
sg20
g5
sg21
F0.0
sg22
g5
sg24
g5
sg25
I0
sg26
g5
sg27
I192758
sg28
g5
sg29
g5
sg30
g5
sg31
g34
ssS'MURRAY JULIA H'
p359
(dp360
g3
I2192
sg4
g5
sg6
I400000
sg7
F0.044444444444444446
sg8
I597461
sg9
I57580
sg10
I11
sg11
I2
sg12
I00
sg13
F2.605768392037822
sg14
g5
sg15
I196983
sg16
I125000
sg17
I229284
sg18
F1.744561330053558
sg19
I812194
sg20
g5
sg21
F0.00581135449262405
sg22
S'julia.murray@enron.com'
p361
sg24
g5
sg25
I1
sg26
I395
sg27
I400478
sg28
I45
sg29
I330
sg30
g5
sg31
F0.005018248175182482
ssS'GARLAND C KEVIN'
p362
(dp363
g3
I209
sg4
g5
sg6
I850000
sg7
F0.6136363636363636
sg8
I896153
sg9
I48405
sg10
I10
sg11
I27
sg12
I00
sg13
F3.8636277409397013
sg14
g5
sg15
I259907
sg16
I375304
sg17
I231946
sg18
F3.6646460814155017
sg19
I1566469
sg20
g5
sg21
F0.14624505928853754
sg22
S'kevin.garland@enron.com'
p364
sg24
g5
sg25
I1
sg26
I178
sg27
I636246
sg28
I44
sg29
I60814
sg30
g5
sg31
F0.04784688995215311
ssS'DODSON KEITH'
p365
(dp366
g3
I176
sg4
g5
sg6
I70000
sg7
F0.21428571428571427
sg8
g5
sg9
I28164
sg10
I10
sg11
I3
sg12
I00
sg13
g40
sg14
g5
sg15
g5
sg16
g5
sg17
I221003
sg18
F0.3167377818400655
sg19
I319941
sg20
g5
sg21
F0.06842105263157895
sg22
S'keith.dodson@enron.com'
p367
sg24
g5
sg25
I1
sg26
I114
sg27
g5
sg28
I14
sg29
I774
sg30
g5
sg31
F0.056818181818181816
ssS'YEAGER F SCOTT'
p368
(dp369
g3
g5
sg4
g5
sg6
g5
sg7
g34
sg8
I11884758
sg9
I53947
sg10
g5
sg11
g5
sg12
I01
sg13
F75.02861688225602
sg14
g5
sg15
I3576206
sg16
g5
sg17
I158403
sg18
g40
sg19
I360300
sg20
g5
sg21
F0.06842105263157895
sg22
S'scott.yeager@enron.com'
p370
sg24
g5
sg25
I1
sg26
g5
sg27
I8308552
sg28
g5
sg29
I147950
sg30
g5
sg31
g34
ssS'HIRKO JOSEPH'
p371
(dp372
g3
g5
sg4
I10259
sg6
g5
sg7
g34
sg8
I30766064
sg9
I77978
sg10
g5
sg11
g5
sg12
I01
sg13
g40
sg14
g5
sg15
g5
sg16
g5
sg17
g5
sg18
g40
sg19
I91093
sg20
g5
sg21
F0.06842105263157895
sg22
S'joe.hirko@enron.com'
p373
sg24
g5
sg25
I1
sg26
g5
sg27
I30766064
sg28
g5
sg29
I2856
sg30
g5
sg31
g34
ssS'DIETRICH JANET R'
p374
(dp375
g3
I2572
sg4
g5
sg6
I600000
sg7
F0.2222222222222222
sg8
I1865087
sg9
I3475
sg10
I305
sg11
I14
sg12
I00
sg13
F7.457365053978409
sg14
g5
sg15
I315068
sg16
I556416
sg17
I250100
sg18
F2.3990403838464616
sg19
I1410464
sg20
g5
sg21
F0.12106261859582543
sg22
S'janet.dietrich@enron.com'
p376
sg24
g5
sg25
I1
sg26
I1902
sg27
I1550019
sg28
I63
sg29
I473
sg30
g5
sg31
F0.11858475894245724
ssS'DERRICK JR. JAMES V'
p377
(dp378
g3
I2181
sg4
g5
sg6
I800000
sg7
F0.022002200220022004
sg8
I8831913
sg9
I51124
sg10
I64
sg11
I20
sg12
I00
sg13
F17.9373709063214
sg14
I-1284000
sg15
I1787380
sg16
I484000
sg17
I492375
sg18
F1.6247778624016247
sg19
I550981
sg20
g5
sg21
F0.027184466019417475
sg22
S'james.derrick@enron.com'
p379
sg24
I-1787380
sg25
I1
sg26
I1401
sg27
I8831913
sg28
I909
sg29
I7482
sg30
g5
sg31
F0.029344337459880788
ssS'FREVERT MARK A'
p380
(dp381
g3
I3275
sg4
I6426990
sg6
I2000000
sg7
F0.2857142857142857
sg8
I14622185
sg9
I86987
sg10
I242
sg11
I6
sg12
I00
sg13
F13.782396044232806
sg14
I-3367011
sg15
I4188667
sg16
I1617011
sg17
I1060932
sg18
F1.885134956811558
sg19
I17252530
sg20
I2000000
sg21
F0.07524271844660194
sg22
S'mark.frevert@enron.com'
p382
sg24
g5
sg25
I1
sg26
I2979
sg27
I10433518
sg28
I21
sg29
I7427621
sg30
g5
sg31
F0.07389312977099237
ssS'PAI LOU L'
p383
(dp384
g3
g5
sg4
g5
sg6
I1000000
sg7
g34
sg8
I23817930
sg9
I32047
sg10
g5
sg11
g5
sg12
I00
sg13
F90.95013345858202
sg14
g5
sg15
I8453763
sg16
g5
sg17
I261879
sg18
F3.8185574253758414
sg19
I3123383
sg20
g5
sg21
F0.07524271844660194
sg22
S'lou.pai@enron.com'
p385
sg24
g5
sg25
I1
sg26
g5
sg27
I15364167
sg28
g5
sg29
I1829457
sg30
g5
sg31
g34
ssS'BAY FRANKLIN R'
p386
(dp387
g3
g5
sg4
I260455
sg6
I400000
sg7
g34
sg8
I63014
sg9
I129142
sg10
g5
sg11
g5
sg12
I00
sg13
F0.26291875112132884
sg14
I-201641
sg15
I145796
sg16
g5
sg17
I239671
sg18
F1.6689545251615756
sg19
I827696
sg20
g5
sg21
F0.07524271844660194
sg22
S'frank.bay@enron.com'
p388
sg24
I-82782
sg25
I1
sg26
g5
sg27
g5
sg28
g5
sg29
I69
sg30
g5
sg31
g34
ssS'HAYSLETT RODERICK J'
p389
(dp390
g3
I2649
sg4
g5
sg6
g5
sg7
F0.03581526861451461
sg8
I346663
sg9
g5
sg10
I35
sg11
I38
sg12
I00
sg13
g40
sg14
g5
sg15
I346663
sg16
g5
sg17
g5
sg18
g40
sg19
g5
sg20
g5
sg21
F0.019676549865229112
sg22
S'rod.hayslett@enron.com'
p391
sg24
g5
sg25
I1
sg26
I571
sg27
g5
sg28
I1061
sg29
g5
sg30
g5
sg31
F0.01321253303133258
ssS'FUGH JOHN L'
p392
(dp393
g3
g5
sg4
I50591
sg6
g5
sg7
g34
sg8
I176378
sg9
g5
sg10
g5
sg11
g5
sg12
I00
sg13
g40
sg14
g5
sg15
g5
sg16
g5
sg17
g5
sg18
g40
sg19
I50591
sg20
g5
sg21
F0.019676549865229112
sg22
g5
sg24
g5
sg25
I0
sg26
g5
sg27
I176378
sg28
g5
sg29
g5
sg30
g5
sg31
g34
ssS'FALLON JAMES B'
p394
(dp395
g3
I1755
sg4
g5
sg6
I2500000
sg7
F0.49333333333333335
sg8
I2332399
sg9
I95924
sg10
I42
sg11
I37
sg12
I00
sg13
F7.657553810393056
sg14
g5
sg15
I1392142
sg16
I374347
sg17
I304588
sg18
F8.207808580771403
sg19
I3676340
sg20
g5
sg21
F0.04316939890710383
sg22
S'jim.fallon@enron.com'
p396
sg24
g5
sg25
I1
sg26
I1604
sg27
I940257
sg28
I75
sg29
I401481
sg30
g5
sg31
F0.023931623931623933
ssS'KOENIG MARK E'
p397
(dp398
g3
I2374
sg4
g5
sg6
I700000
sg7
F0.2459016393442623
sg8
I1920055
sg9
I127017
sg10
I53
sg11
I15
sg12
I01
sg13
F6.194804901498971
sg14
g5
sg15
I1248318
sg16
I300000
sg17
I309946
sg18
F2.2584579249288588
sg19
I1587421
sg20
g5
sg21
F0.02792607802874743
sg22
S'mark.koenig@enron.com'
p399
sg24
g5
sg25
I1
sg26
I2271
sg27
I671737
sg28
I61
sg29
I150458
sg30
g5
sg31
F0.02232518955349621
ssS'SAVAGE FRANK'
p400
(dp401
g3
g5
sg4
g5
sg6
g5
sg7
g34
sg8
g5
sg9
g5
sg10
g5
sg11
g5
sg12
I00
sg13
g40
sg14
I-121284
sg15
g5
sg16
g5
sg17
g5
sg18
g40
sg19
I3750
sg20
g5
sg21
F0.02792607802874743
sg22
g5
sg24
g5
sg25
I0
sg26
g5
sg27
g5
sg28
g5
sg29
g5
sg30
I125034
sg31
g34
ssS'IZZO LAWRENCE L'
p402
(dp403
g3
I496
sg4
g5
sg6
g5
sg7
F0.2631578947368421
sg8
I5819980
sg9
I28093
sg10
I28
sg11
I5
sg12
I00
sg13
F68.25034594366396
sg14
g5
sg15
I3654808
sg16
I312500
sg17
I85274
sg18
g40
sg19
I1979596
sg20
g5
sg21
F0.06407766990291262
sg22
S'larry.izzo@enron.com'
p404
sg24
g5
sg25
I1
sg26
I437
sg27
I2165172
sg28
I19
sg29
I1553729
sg30
g5
sg31
F0.056451612903225805
ssS'TILNEY ELIZABETH A'
p405
(dp406
g3
I460
sg4
g5
sg6
I300000
sg7
F0.5789473684210527
sg8
I1168042
sg9
g5
sg10
I10
sg11
I11
sg12
I00
sg13
F4.7224526760950605
sg14
I-575000
sg15
I576792
sg16
I275000
sg17
I247338
sg18
F1.2129151201998885
sg19
I399393
sg20
g5
sg21
F0.04384133611691023
sg22
S'elizabeth.tilney@enron.com'
p407
sg24
g5
sg25
I1
sg26
I379
sg27
I591250
sg28
I19
sg29
I152055
sg30
g5
sg31
F0.021739130434782608
ssS'MARTIN AMANDA K'
p408
(dp409
g3
I1522
sg4
I85430
sg6
g5
sg7
F0.0
sg8
I2070306
sg9
I8211
sg10
I8
sg11
I0
sg12
I00
sg13
F5.923842660814279
sg14
g5
sg15
g5
sg16
I5145434
sg17
I349487
sg18
g40
sg19
I8407016
sg20
g5
sg21
F0.0045662100456621
sg22
S'a..martin@enron.com'
p410
sg24
g5
sg25
I1
sg26
I477
sg27
I2070306
sg28
I230
sg29
I2818454
sg30
g5
sg31
F0.005256241787122208
ssS'BUY RICHARD B'
p411
(dp412
g3
I3523
sg4
I649584
sg6
I900000
sg7
F0.06742640075973409
sg8
I3444470
sg9
g5
sg10
I156
sg11
I71
sg12
I00
sg13
F10.420546610759168
sg14
I-694862
sg15
I901657
sg16
I769862
sg17
I330546
sg18
F2.722767784211577
sg19
I2355702
sg20
g5
sg21
F0.04960664335664336
sg22
S'rick.buy@enron.com'
p413
sg24
g5
sg25
I1
sg26
I2333
sg27
I2542813
sg28
I1053
sg29
I400572
sg30
g5
sg31
F0.04428044280442804
ssS'GRAMM WENDY L'
p414
(dp415
g3
g5
sg4
g5
sg6
g5
sg7
g34
sg8
g5
sg9
g5
sg10
g5
sg11
g5
sg12
I00
sg13
g40
sg14
g5
sg15
g5
sg16
g5
sg17
g5
sg18
g40
sg19
I119292
sg20
g5
sg21
F0.04960664335664336
sg22
g5
sg24
g5
sg25
I0
sg26
g5
sg27
g5
sg28
g5
sg29
g5
sg30
I119292
sg31
g34
ssS'CAUSEY RICHARD A'
p416
(dp417
g3
I1892
sg4
g5
sg6
I1000000
sg7
F0.24489795918367346
sg8
I2502063
sg9
I30674
sg10
I58
sg11
I12
sg12
I01
sg13
F6.026322951715965
sg14
I-235000
sg15
I2502063
sg16
I350000
sg17
I415189
sg18
F2.4085416521150607
sg19
I1868758
sg20
g5
sg21
F0.03606388459556929
sg22
S'richard.causey@enron.com'
p418
sg24
g5
sg25
I1
sg26
I1585
sg27
g5
sg28
I49
sg29
I307895
sg30
g5
sg31
F0.0306553911205074
ssS'TAYLOR MITCHELL S'
p419
(dp420
g3
I533
sg4
I227449
sg6
I600000
sg7
F0.0
sg8
I3745048
sg9
g5
sg10
I0
sg11
I0
sg12
I00
sg13
F14.120853348616588
sg14
g5
sg15
I563798
sg16
g5
sg17
I265214
sg18
F2.2623240100447184
sg19
I1092663
sg20
g5
sg21
F0.0
sg22
S'mitchell.taylor@enron.com'
p421
sg24
g5
sg25
I1
sg26
I300
sg27
I3181250
sg28
I29
sg29
g5
sg30
g5
sg31
F0.0
ssS'DONAHUE JR JEFFREY M'
p422
(dp423
g3
I865
sg4
g5
sg6
I800000
sg7
F0.5
sg8
I1080988
sg9
I96268
sg10
I188
sg11
I11
sg12
I00
sg13
F3.8800578605245493
sg14
I-300000
sg15
I315068
sg16
g5
sg17
I278601
sg18
F2.8714900520816506
sg19
I875760
sg20
g5
sg21
F0.22435174746335965
sg22
S'jeff.donahue@enron.com'
p424
sg24
g5
sg25
I1
sg26
I772
sg27
I765920
sg28
I22
sg29
I891
sg30
g5
sg31
F0.21734104046242775
ssS'GLISAN JR BEN F'
p425
(dp426
g3
I873
sg4
g5
sg6
I600000
sg7
F0.375
sg8
I778546
sg9
I125978
sg10
I52
sg11
I6
sg12
I01
sg13
F2.8313337576143285
sg14
g5
sg15
I393818
sg16
I71023
sg17
I274975
sg18
F2.1820165469588146
sg19
I1272284
sg20
g5
sg21
F0.06524184476940383
sg22
S'ben.glisan@enron.com'
p427
sg24
g5
sg25
I1
sg26
I874
sg27
I384728
sg28
I16
sg29
I200308
sg30
g5
sg31
F0.05956471935853379
ss.